; Function Attrs: alwaysinline norecurse nounwind uwtable
define internal void @_ZNK4ncnn14Interp_x86_avx7forwardERKSt6vectorINS_3MatESaIS2_EERS4_RKNS_6OptionE.omp_outlined.9(ptr noalias noundef readonly captures(none) %0, ptr noalias readnone captures(none) %1, ptr noundef nonnull readonly align 4 captures(none) dereferenceable(4) %2, ptr noundef nonnull readonly align 8 captures(none) dereferenceable(72) %3, ptr noundef nonnull readonly align 8 captures(none) dereferenceable(72) %4, ptr noundef nonnull readonly align 4 captures(none) dereferenceable(4) %5, ptr noundef nonnull readonly align 4 captures(none) dereferenceable(4) %6, ptr noundef nonnull readonly align 4 captures(none) dereferenceable(4) %7) #10 personality ptr @__gxx_personality_v0 {
  %9 = alloca i32, align 4
  %10 = alloca i32, align 4
  %11 = alloca i32, align 4
  %12 = alloca i32, align 4
  %13 = load i32, ptr %2, align 4, !tbaa !16
  %14 = icmp sgt i32 %13, 0
  br i1 %14, label %15, label %51

15:                                               ; preds = %8
  %16 = add nsw i32 %13, -1
  call void @llvm.lifetime.start.p0(i64 4, ptr nonnull %9) #6
  store i32 0, ptr %9, align 4, !tbaa !16
  call void @llvm.lifetime.start.p0(i64 4, ptr nonnull %10) #6
  store i32 %16, ptr %10, align 4, !tbaa !16
  call void @llvm.lifetime.start.p0(i64 4, ptr nonnull %11) #6
  store i32 1, ptr %11, align 4, !tbaa !16
  call void @llvm.lifetime.start.p0(i64 4, ptr nonnull %12) #6
  store i32 0, ptr %12, align 4, !tbaa !16
  %17 = load i32, ptr %0, align 4, !tbaa !16
  call void @__kmpc_for_static_init_4(ptr nonnull @1, i32 %17, i32 34, ptr nonnull %12, ptr nonnull %9, ptr nonnull %10, ptr nonnull %11, i32 1, i32 1)
  %18 = load i32, ptr %10, align 4, !tbaa !16
  %19 = call i32 @llvm.smin.i32(i32 %18, i32 %16)
  store i32 %19, ptr %10, align 4, !tbaa !16
  %20 = load i32, ptr %9, align 4, !tbaa !16
  %.not32 = icmp sgt i32 %20, %19
  br i1 %.not32, label %._crit_edge36, label %.lr.ph35

.lr.ph35:                                         ; preds = %15
  %21 = load ptr, ptr %3, align 8, !tbaa !25
  %22 = getelementptr inbounds nuw i8, ptr %3, i64 44
  %23 = load i32, ptr %22, align 4, !tbaa !17
  %24 = sext i32 %23 to i64
  %25 = getelementptr inbounds nuw i8, ptr %3, i64 16
  %26 = load i64, ptr %25, align 8, !tbaa !20
  %factor.op.mul = mul i64 %26, %24
  %27 = load ptr, ptr %4, align 8, !tbaa !25
  %28 = getelementptr inbounds nuw i8, ptr %4, i64 44
  %29 = load i32, ptr %28, align 4, !tbaa !17
  %30 = sext i32 %29 to i64
  %31 = getelementptr inbounds nuw i8, ptr %4, i64 16
  %32 = load i64, ptr %31, align 8, !tbaa !20
  %factor.op.mul37 = mul i64 %32, %30
  %33 = load i32, ptr %5, align 4, !tbaa !16
  %34 = icmp sgt i32 %33, 0
  %35 = load i32, ptr %7, align 4
  %36 = add nsw i32 %35, -1
  br i1 %34, label %.lr.ph.us.preheader, label %._crit_edge36

.lr.ph.us.preheader:                              ; preds = %.lr.ph35
  %37 = sext i32 %20 to i64
  %38 = add nsw i32 %19, 1
  br label %.lr.ph.us

.lr.ph.us:                                        ; preds = %.lr.ph.us.preheader, %._crit_edge.us
  %indvars.iv = phi i64 [ %37, %.lr.ph.us.preheader ], [ %indvars.iv.next, %._crit_edge.us ]
  %.reass.us = mul i64 %factor.op.mul, %indvars.iv
  %39 = getelementptr inbounds nuw i8, ptr %21, i64 %.reass.us
  %.reass38.us = mul i64 %factor.op.mul37, %indvars.iv
  %40 = getelementptr inbounds nuw i8, ptr %27, i64 %.reass38.us
  br label %41

41:                                               ; preds = %.lr.ph.us, %41
  %.02531.us = phi i32 [ 0, %.lr.ph.us ], [ %50, %41 ]
  %.02630.us = phi ptr [ %40, %.lr.ph.us ], [ %49, %41 ]
  %42 = uitofp nneg i32 %.02531.us to float
  %43 = load float, ptr %6, align 4, !tbaa !49
  %44 = fmul fast float %43, %42
  %45 = fptosi float %44 to i32
  %.sroa.speculated.us = call i32 @llvm.smin.i32(i32 %36, i32 %45)
  %46 = sext i32 %.sroa.speculated.us to i64
  %47 = getelementptr inbounds float, ptr %39, i64 %46
  %48 = load float, ptr %47, align 4, !tbaa !49
  %49 = getelementptr inbounds nuw i8, ptr %.02630.us, i64 4
  store float %48, ptr %.02630.us, align 4, !tbaa !49
  %50 = add nuw nsw i32 %.02531.us, 1
  %exitcond.not = icmp eq i32 %50, %33
  br i1 %exitcond.not, label %._crit_edge.us, label %41, !llvm.loop !88

._crit_edge.us:                                   ; preds = %41
  %indvars.iv.next = add nsw i64 %indvars.iv, 1
  %lftr.wideiv = trunc i64 %indvars.iv.next to i32
  %exitcond41.not = icmp eq i32 %38, %lftr.wideiv
  br i1 %exitcond41.not, label %._crit_edge36, label %.lr.ph.us

._crit_edge36:                                    ; preds = %._crit_edge.us, %.lr.ph35, %15
  call void @__kmpc_for_static_fini(ptr nonnull @1, i32 %17)
  call void @llvm.lifetime.end.p0(i64 4, ptr nonnull %12) #6
  call void @llvm.lifetime.end.p0(i64 4, ptr nonnull %11) #6
  call void @llvm.lifetime.end.p0(i64 4, ptr nonnull %10) #6
  call void @llvm.lifetime.end.p0(i64 4, ptr nonnull %9) #6
  br label %51

51:                                               ; preds = %._crit_edge36, %8
  ret void
}